target datalayout = "e-m:e-p270:32:32-p271:32:32-p272:64:64-i64:64-i128:128-f80:128-n8:16:32:64-S128"
target triple = "x86_64-pc-linux-gnu"

%struct._xmpp_attr_info = type { ptr, ptr, i8, i8, ptr, ptr }
%struct._packet_info = type { ptr, ptr, i32, i32, %struct.nstime_t, %struct.nstime_t, %struct.nstime_t, i8, ptr, ptr, ptr, ptr, %struct._address, %struct._address, %struct._address, %struct._address, %struct._address, %struct._address, i32, ptr, i8, [3 x i8], %struct.anon, i32, i32, i32, i32, ptr, i8, ptr, ptr, i16, i16, i32, i32, i16, i32, i32, ptr, ptr, ptr, i8, i8, i16, i16, i16, i32, i16, i16, ptr, ptr, ptr, ptr, ptr, i32, i32 }
%struct.nstime_t = type { i64, i32 }
%struct._address = type { i32, i32, ptr, ptr }
%struct.anon = type { i8, [3 x i8] }
%struct._xmpp_element_t = type { ptr, ptr, ptr, ptr, ptr, ptr, i32, i32, i8 }
%struct._xmpp_attr_info_ext = type { ptr, %struct._xmpp_attr_info }

@.str.87 = private unnamed_addr constant [5 x i8] c"AUTH\00", align 1
@hf_xmpp_auth = external global i32, align 4
@ett_xmpp_auth = external global i32, align 4

; Function Attrs: null_pointer_is_valid sspstrong uwtable
define hidden void @xmpp_auth(ptr noundef %0, ptr noundef %1, ptr noundef %2, ptr noundef %3) #0 {
  %5 = alloca ptr, align 8
  %6 = alloca ptr, align 8
  %7 = alloca ptr, align 8
  %8 = alloca ptr, align 8
  %9 = alloca ptr, align 8
  %10 = alloca ptr, align 8
  %11 = alloca [4 x %struct._xmpp_attr_info_ext], align 16
  store ptr %0, ptr %5, align 8
  store ptr %1, ptr %6, align 8
  store ptr %2, ptr %7, align 8
  store ptr %3, ptr %8, align 8
  call void @llvm.lifetime.start.p0(i64 8, ptr %9) #6
  call void @llvm.lifetime.start.p0(i64 8, ptr %10) #6
  call void @llvm.lifetime.start.p0(i64 192, ptr %11) #6
  call void @llvm.memcpy.p0.p0.i64(ptr align 16 %11, ptr align 16 @__const.xmpp_auth.attrs_info, i64 192, i1 false)
  %12 = load ptr, ptr %7, align 8
  %13 = getelementptr inbounds nuw %struct._packet_info, ptr %12, i32 0, i32 1
  %14 = load ptr, ptr %13, align 8
  call void @col_set_str(ptr noundef %14, i32 noundef 25, ptr noundef @.str.87)
  %15 = load ptr, ptr %5, align 8
  %16 = load i32, ptr @hf_xmpp_auth, align 4
  %17 = load ptr, ptr %6, align 8
  %18 = load ptr, ptr %8, align 8
  %19 = getelementptr inbounds nuw %struct._xmpp_element_t, ptr %18, i32 0, i32 6
  %20 = load i32, ptr %19, align 8
  %21 = load ptr, ptr %8, align 8
  %22 = getelementptr inbounds nuw %struct._xmpp_element_t, ptr %21, i32 0, i32 7
  %23 = load i32, ptr %22, align 4
  %24 = call ptr @proto_tree_add_item(ptr noundef %15, i32 noundef %16, ptr noundef %17, i32 noundef %20, i32 noundef %23, i32 noundef 0)
  store ptr %24, ptr %9, align 8
  %25 = load ptr, ptr %9, align 8
  %26 = load i32, ptr @ett_xmpp_auth, align 4
  %27 = call ptr @proto_item_add_subtree(ptr noundef %25, i32 noundef %26)
  store ptr %27, ptr %10, align 8
  %28 = load ptr, ptr %10, align 8
  %29 = load ptr, ptr %8, align 8
  %30 = load ptr, ptr %7, align 8
  %31 = load ptr, ptr %6, align 8
  %32 = getelementptr inbounds [4 x %struct._xmpp_attr_info_ext], ptr %11, i64 0, i64 0
  call void @xmpp_display_attrs_ext(ptr noundef %28, ptr noundef %29, ptr noundef %30, ptr noundef %31, ptr noundef %32, i32 noundef 4)
  %33 = load ptr, ptr %10, align 8
  %34 = load ptr, ptr %6, align 8
  %35 = load ptr, ptr %8, align 8
  call void @xmpp_cdata(ptr noundef %33, ptr noundef %34, ptr noundef %35, i32 noundef -1)
  %36 = load ptr, ptr %10, align 8
  %37 = load ptr, ptr %6, align 8
  %38 = load ptr, ptr %7, align 8
  %39 = load ptr, ptr %8, align 8
  call void @xmpp_unknown(ptr noundef %36, ptr noundef %37, ptr noundef %38, ptr noundef %39)
  call void @llvm.lifetime.end.p0(i64 192, ptr %11) #6
  call void @llvm.lifetime.end.p0(i64 8, ptr %10) #6
  call void @llvm.lifetime.end.p0(i64 8, ptr %9) #6
  ret void
}