; Function Attrs: null_pointer_is_valid sspstrong uwtable
define hidden void @xmpp_auth(ptr noundef %0, ptr noundef %1, ptr noundef %2, ptr noundef %3) local_unnamed_addr #0 {
  %5 = alloca [4 x %struct._xmpp_attr_info_ext], align 16
  call void @llvm.lifetime.start.p0(i64 192, ptr nonnull %5) #5
  call void @llvm.memcpy.p0.p0.i64(ptr noundef nonnull align 16 dereferenceable(192) %5, ptr noundef nonnull align 16 dereferenceable(192) @__const.xmpp_auth.attrs_info, i64 192, i1 false)
  %6 = getelementptr inbounds nuw i8, ptr %2, i64 8
  %7 = load ptr, ptr %6, align 8
  tail call void @col_set_str(ptr noundef %7, i32 noundef 25, ptr noundef nonnull @.str.87)
  %8 = load i32, ptr @hf_xmpp_auth, align 4
  %9 = getelementptr inbounds nuw i8, ptr %3, i64 48
  %10 = load i32, ptr %9, align 8
  %11 = getelementptr inbounds nuw i8, ptr %3, i64 52
  %12 = load i32, ptr %11, align 4
  %13 = tail call ptr @proto_tree_add_item(ptr noundef %0, i32 noundef %8, ptr noundef %1, i32 noundef %10, i32 noundef %12, i32 noundef 0)
  %14 = load i32, ptr @ett_xmpp_auth, align 4
  %15 = tail call ptr @proto_item_add_subtree(ptr noundef %13, i32 noundef %14)
  call void @xmpp_display_attrs_ext(ptr noundef %15, ptr noundef %3, ptr noundef %2, ptr noundef %1, ptr noundef nonnull %5, i32 noundef 4)
  call void @xmpp_cdata(ptr noundef %15, ptr noundef %1, ptr noundef %3, i32 noundef -1)
  call void @xmpp_unknown(ptr noundef %15, ptr noundef %1, ptr noundef %2, ptr noundef %3)
  call void @llvm.lifetime.end.p0(i64 192, ptr nonnull %5) #5
  ret void
}